(lp0
S'Abadi MT Condensed Extra Bold'
p1
aS'Abadi MT Condensed Light'
p2
aS'Al Bayan'
p3
aS'Al Nile'
p4
aS'Al Tarikh'
p5
aS'American Typewriter'
p6
aS'Andale Mono'
p7
aS'Apple Braille'
p8
aS'Apple Chancery'
p9
aS'Apple Color Emoji'
p10
aS'Apple SD Gothic Neo'
p11
aS'Apple Symbols'
p12
aS'AppleGothic'
p13
aS'AppleMyungjo'
p14
aS'Arial'
p15
aS'Arial Black'
p16
aS'Arial Hebrew'
p17
aS'Arial Hebrew Scholar'
p18
aS'Arial Narrow'
p19
aS'Arial Rounded MT Bold'
p20
aS'Arial Unicode MS'
p21
aS'Athelas'
p22
aS'Avenir'
p23
aS'Avenir Next'
p24
aS'Avenir Next Condensed'
p25
aS'Ayuthaya'
p26
aS'Baghdad'
p27
aS'Bangla MN'
p28
aS'Bangla Sangam MN'
p29
aS'Baoli SC'
p30
aS'Baskerville'
p31
aS'Baskerville Old Face'
p32
aS'Batang'
p33
aS'Bauhaus 93'
p34
aS'Beirut'
p35
aS'Bell MT'
p36
aS'Bernard MT Condensed'
p37
aS'Big Caslon'
p38
aS'Bodoni 72'
p39
aS'Bodoni 72 Oldstyle'
p40
aS'Bodoni 72 Smallcaps'
p41
aS'Bodoni Ornaments'
p42
aS'Book Antiqua'
p43
aS'Bookman Old Style'
p44
aS'Bookshelf Symbol 7'
p45
aS'Bradley Hand'
p46
aS'Braggadocio'
p47
aS'Britannic Bold'
p48
aS'Brush Script MT'
p49
aS'Calibri'
p50
aS'Calisto MT'
p51
aS'Cambria'
p52
aS'Cambria Math'
p53
aS'Candara'
p54
aS'Century'
p55
aS'Century Gothic'
p56
aS'Century Schoolbook'
p57
aS'Chalkboard'
p58
aS'Chalkboard SE'
p59
aS'Chalkduster'
p60
aS'Charter'
p61
aS'Cochin'
p62
aS'Colonna MT'
p63
aS'Comic Sans MS'
p64
aS'Consolas'
p65
aS'Constantia'
p66
aS'Cooper Black'
p67
aS'Copperplate'
p68
aS'Copperplate Gothic Bold'
p69
aS'Copperplate Gothic Light'
p70
aS'Corbel'
p71
aS'Corsiva Hebrew'
p72
aS'Courier'
p73
aS'Courier New'
p74
aS'Curlz MT'
p75
aS'Damascus'
p76
aS'DecoType Naskh'
p77
aS'Desdemona'
p78
aS'Devanagari MT'
p79
aS'Devanagari Sangam MN'
p80
aS'Didot'
p81
aS'DIN Alternate'
p82
aS'DIN Condensed'
p83
aS'Diwan Kufi'
p84
aS'Diwan Thuluth'
p85
aS'Edwardian Script ITC'
p86
aS'Engravers MT'
p87
aS'Euphemia UCAS'
p88
aS'Eurostile'
p89
aS'Farah'
p90
aS'Farisi'
p91
aS'Footlight MT Light'
p92
aS'Franklin Gothic Book'
p93
aS'Franklin Gothic Medium'
p94
aS'Futura'
p95
aS'Gabriola'
p96
aS'Garamond'
p97
aS'GB18030 Bitmap'
p98
aS'Geeza Pro'
p99
aS'Geneva'
p100
aS'Georgia'
p101
aS'Gill Sans'
p102
aS'Gill Sans MT'
p103
aS'Gloucester MT Extra Condensed'
p104
aS'Goudy Old Style'
p105
aS'Gujarati MT'
p106
aS'Gujarati Sangam MN'
p107
aS'Gulim'
p108
aS'GungSeo'
p109
aS'Gurmukhi MN'
p110
aS'Gurmukhi MT'
p111
aS'Gurmukhi Sangam MN'
p112
aS'Haettenschweiler'
p113
aS'Hannotate SC'
p114
aS'Hannotate TC'
p115
aS'HanziPen SC'
p116
aS'HanziPen TC'
p117
aS'Harrington'
p118
aS'HeadLineA'
p119
aS'Heiti SC'
p120
aS'Heiti TC'
p121
aS'Helvetica'
p122
aS'Helvetica Neue'
p123
aS'Herculanum'
p124
aS'Hiragino Kaku Gothic Pro'
p125
aS'Hiragino Kaku Gothic ProN'
p126
aS'Hiragino Kaku Gothic Std'
p127
aS'Hiragino Kaku Gothic StdN'
p128
aS'Hiragino Maru Gothic Pro'
p129
aS'Hiragino Maru Gothic ProN'
p130
aS'Hiragino Mincho Pro'
p131
aS'Hiragino Mincho ProN'
p132
aS'Hiragino Sans GB'
p133
aS'Hoefler Text'
p134
aS'Impact'
p135
aS'Imprint MT Shadow'
p136
aS'InaiMathi'
p137
aS'Iowan Old Style'
p138
aS'ITF Devanagari'
p139
aS'Kailasa'
p140
aS'Kaiti SC'
p141
aS'Kaiti TC'
p142
aS'Kannada MN'
p143
aS'Kannada Sangam MN'
p144
aS'Kefa'
p145
aS'Khmer MN'
p146
aS'Khmer Sangam MN'
p147
aS'Kino MT'
p148
aS'Kohinoor Devanagari'
p149
aS'Kokonor'
p150
aS'Krungthep'
p151
aS'KufiStandardGK'
p152
aS'Lantinghei SC'
p153
aS'Lantinghei TC'
p154
aS'Lao MN'
p155
aS'Lao Sangam MN'
p156
aS'Libian SC'
p157
aS'LiHei Pro'
p158
aS'LiSong Pro'
p159
aS'Lucida Blackletter'
p160
aS'Lucida Bright'
p161
aS'Lucida Calligraphy'
p162
aS'Lucida Console'
p163
aS'Lucida Fax'
p164
aS'Lucida Grande'
p165
aS'Lucida Handwriting'
p166
aS'Lucida Sans'
p167
aS'Lucida Sans Typewriter'
p168
aS'Lucida Sans Unicode'
p169
aS'Luminari'
p170
aS'Malayalam MN'
p171
aS'Malayalam Sangam MN'
p172
aS'Marion'
p173
aS'Marker Felt'
p174
aS'Marlett'
p175
aS'Matura MT Script Capitals'
p176
aS'Meiryo'
p177
aS'Menlo'
p178
aS'Microsoft Himalaya'
p179
aS'Microsoft Sans Serif'
p180
aS'Microsoft Tai Le'
p181
aS'Microsoft Yi Baiti'
p182
aS'MingLiU'
p183
aS'MingLiU-ExtB'
p184
aS'MingLiU_HKSCS'
p185
aS'MingLiU_HKSCS-ExtB'
p186
aS'Mishafi'
p187
aS'Mishafi Gold'
p188
aS'Mistral'
p189
aS'Modern No. 20'
p190
aS'Monaco'
p191
aS'Mongolian Baiti'
p192
aS'Monotype Corsiva'
p193
aS'Monotype Sorts'
p194
aS'MS Gothic'
p195
aS'MS Mincho'
p196
aS'MS PGothic'
p197
aS'MS PMincho'
p198
aS'MS Reference Sans Serif'
p199
aS'MS Reference Specialty'
p200
aS'Mshtakan'
p201
aS'MT Extra'
p202
aS'Muna'
p203
aS'Myanmar MN'
p204
aS'Myanmar Sangam MN'
p205
aS'Nadeem'
p206
aS'Nanum Brush Script'
p207
aS'Nanum Gothic'
p208
aS'Nanum Myeongjo'
p209
aS'Nanum Pen Script'
p210
aS'New Peninim MT'
p211
aS'News Gothic MT'
p212
aS'Noteworthy'
p213
aS'Onyx'
p214
aS'Optima'
p215
aS'Oriya MN'
p216
aS'Oriya Sangam MN'
p217
aS'Osaka'
p218
aS'Palatino'
p219
aS'Palatino Linotype'
p220
aS'Papyrus'
p221
aS'PCMyungjo'
p222
aS'Perpetua'
p223
aS'Perpetua Titling MT'
p224
aS'Phosphate'
p225
aS'PilGi'
p226
aS'Plantagenet Cherokee'
p227
aS'Playbill'
p228
aS'PMingLiU'
p229
aS'PMingLiU-ExtB'
p230
aS'PT Mono'
p231
aS'PT Sans'
p232
aS'PT Sans Caption'
p233
aS'PT Sans Narrow'
p234
aS'PT Serif'
p235
aS'PT Serif Caption'
p236
aS'Raanana'
p237
aS'Rockwell'
p238
aS'Rockwell Extra Bold'
p239
aS'Sana'
p240
aS'Sathu'
p241
aS'Savoye LET'
p242
aS'Seravek'
p243
aS'Shree Devanagari 714'
p244
aS'SignPainter'
p245
aS'Silom'
p246
aS'SimHei'
p247
aS'SimSun'
p248
aS'SimSun-ExtB'
p249
aS'Sinhala MN'
p250
aS'Sinhala Sangam MN'
p251
aS'Skia'
p252
aS'Snell Roundhand'
p253
aS'Songti SC'
p254
aS'Songti TC'
p255
aS'Stencil'
p256
aS'STFangsong'
p257
aS'STHeiti'
p258
aS'STIXGeneral'
p259
aS'STIXIntegralsD'
p260
aS'STIXIntegralsSm'
p261
aS'STIXIntegralsUp'
p262
aS'STIXIntegralsUpD'
p263
aS'STIXIntegralsUpSm'
p264
aS'STIXNonUnicode'
p265
aS'STIXSizeFiveSym'
p266
aS'STIXSizeFourSym'
p267
aS'STIXSizeOneSym'
p268
aS'STIXSizeThreeSym'
p269
aS'STIXSizeTwoSym'
p270
aS'STIXVariants'
p271
aS'STKaiti'
p272
aS'STSong'
p273
aS'Sukhumvit Set'
p274
aS'Superclarendon'
p275
aS'Symbol'
p276
aS'Tahoma'
p277
aS'Tamil MN'
p278
aS'Tamil Sangam MN'
p279
aS'Telugu MN'
p280
aS'Telugu Sangam MN'
p281
aS'Thonburi'
p282
aS'Times'
p283
aS'Times New Roman'
p284
aS'Trattatello'
p285
aS'Trebuchet MS'
p286
aS'Tw Cen MT'
p287
aS'Verdana'
p288
aS'Waseem'
p289
aS'Wawati SC'
p290
aS'Wawati TC'
p291
aS'Webdings'
p292
aS'Weibei SC'
p293
aS'Weibei TC'
p294
aS'Wide Latin'
p295
aS'Wingdings'
p296
aS'Wingdings 2'
p297
aS'Wingdings 3'
p298
aS'Xingkai SC'
p299
aS'Yuanti SC'
p300
aS'YuGothic'
p301
aS'YuMincho'
p302
aS'Yuppy SC'
p303
aS'Yuppy TC'
p304
aS'Zapf Dingbats'
p305
aS'Zapfino'
p306
a.