(lp0
S'Aharoni'
p1
aS'Andalus'
p2
aS'Angsana New'
p3
aS'AngsanaUPC'
p4
aS'Aparajita'
p5
aS'Arabic Typesetting'
p6
aS'Arial'
p7
aS'Arial Black'
p8
aS'Batang'
p9
aS'BatangChe'
p10
aS'Browallia New'
p11
aS'BrowalliaUPC'
p12
aS'Calibri'
p13
aS'Cambria'
p14
aS'Cambria Math'
p15
aS'Candara'
p16
aS'Comic Sans MS'
p17
aS'Consolas'
p18
aS'Constantia'
p19
aS'Corbel'
p20
aS'Cordia New'
p21
aS'CordiaUPC'
p22
aS'Courier'
p23
aS'Courier New'
p24
aS'DaunPenh'
p25
aS'David'
p26
aS'DFKai-SB'
p27
aS'DilleniaUPC'
p28
aS'DokChampa'
p29
aS'Dotum'
p30
aS'DotumChe'
p31
aS'Ebrima'
p32
aS'Estrangelo Edessa'
p33
aS'EucrosiaUPC'
p34
aS'Euphemia'
p35
aS'FangSong'
p36
aS'Fixedsys'
p37
aS'Franklin Gothic Medium'
p38
aS'FrankRuehl'
p39
aS'FreesiaUPC'
p40
aS'Gabriola'
p41
aS'Gautami'
p42
aS'Georgia'
p43
aS'Gisha'
p44
aS'Gulim'
p45
aS'GulimChe'
p46
aS'Gungsuh'
p47
aS'GungsuhChe'
p48
aS'Impact'
p49
aS'IrisUPC'
p50
aS'Iskoola Pota'
p51
aS'JasmineUPC'
p52
aS'KaiTi'
p53
aS'Kalinga'
p54
aS'Kartika'
p55
aS'Khmer UI'
p56
aS'KodchiangUPC'
p57
aS'Kokila'
p58
aS'Lao UI'
p59
aS'Latha'
p60
aS'Leelawadee'
p61
aS'Levenim MT'
p62
aS'LilyUPC'
p63
aS'Lucida Console'
p64
aS'Lucida Sans Unicode'
p65
aS'Malgun Gothic'
p66
aS'Mangal'
p67
aS'Marlett'
p68
aS'Meiryo'
p69
aS'Meiryo UI'
p70
aS'Microsoft Himalaya'
p71
aS'Microsoft JhengHei'
p72
aS'Microsoft New Tai Lue'
p73
aS'Microsoft PhagsPa'
p74
aS'Microsoft Sans Serif'
p75
aS'Microsoft Tai Le'
p76
aS'Microsoft Uighur'
p77
aS'Microsoft YaHei'
p78
aS'Microsoft Yi Baiti'
p79
aS'MingLiU'
p80
aS'MingLiU-ExtB'
p81
aS'MingLiU_HKSCS'
p82
aS'MingLiU_HKSCS-ExtB'
p83
aS'Miriam'
p84
aS'Miriam Fixed'
p85
aS'Modern'
p86
aS'Mongolian Baiti'
p87
aS'MoolBoran'
p88
aS'MS Gothic'
p89
aS'MS Mincho'
p90
aS'MS PGothic'
p91
aS'MS PMincho'
p92
aS'MS Sans Serif'
p93
aS'MS Serif'
p94
aS'MS UI Gothic'
p95
aS'MV Boli'
p96
aS'Narkisim'
p97
aS'NSimSun'
p98
aS'Nyala'
p99
aS'Palatino Linotype'
p100
aS'Plantagenet Cherokee'
p101
aS'PMingLiU'
p102
aS'PMingLiU-ExtB'
p103
aS'Raavi'
p104
aS'Rod'
p105
aS'Roman'
p106
aS'Sakkal Majalla'
p107
aS'Script'
p108
aS'Segoe Print'
p109
aS'Segoe Script'
p110
aS'Segoe UI'
p111
aS'Segoe UI Light'
p112
aS'Segoe UI Semibold'
p113
aS'Segoe UI Symbol'
p114
aS'Shonar Bangla'
p115
aS'Shruti'
p116
aS'SimHei'
p117
aS'Simplified Arabic'
p118
aS'Simplified Arabic Fixed'
p119
aS'SimSun'
p120
aS'SimSun-ExtB'
p121
aS'Small Fonts'
p122
aS'Sylfaen'
p123
aS'Symbol'
p124
aS'System'
p125
aS'Tahoma'
p126
aS'Terminal'
p127
aS'Times New Roman'
p128
aS'Traditional Arabic'
p129
aS'Trebuchet MS'
p130
aS'Tunga'
p131
aS'Utsaah'
p132
aS'Vani'
p133
aS'Verdana'
p134
aS'Vijaya'
p135
aS'Vrinda'
p136
aS'Webdings'
p137
aS'Wingdings'
p138
a.