(lp0
S'PT Sans Caption'
p1
aS'Stencil'
p2
aS'News Gothic MT'
p3
aS'Liberation Serif'
p4
aS'Verdana'
p5
aS'Caladea'
p6
aS'FreeMono'
p7
aS'Corsiva Hebrew'
p8
aS'Elephant'
p9
aS'Weibei SC'
p10
aS'Kannada Sangam MN'
p11
aS'Chalkduster'
p12
aS'Abadi MT Condensed Extra Bold'
p13
aS'HeadLineA'
p14
aS'HanziPen SC'
p15
aS'Garuda'
p16
aS'Yu Gothic UI Semilight'
p17
aS'Wide Latin'
p18
aS'GungSeo'
p19
aS'KacstPoster'
p20
aS'Andalus'
p21
aS'Hiragino Maru Gothic Pro'
p22
aS'Dotum'
p23
aS'Segoe MDL2 Assets'
p24
aS'Segoe UI Semibold'
p25
aS'KacstQurn'
p26
aS'TlwgMono'
p27
aS'Droid Naskh Shift Alt'
p28
aS'Vivaldi'
p29
aS'Khmer Sangam MN'
p30
aS'Osaka'
p31
aS'OpenSymbol'
p32
aS'STIXIntegralsUpSm'
p33
aS'Gisha'
p34
aS'Nadeem'
p35
aS'Century Schoolbook L'
p36
aS'Impact'
p37
aS'Songti TC'
p38
aS'Lao Sangam MN'
p39
aS'Snap ITC'
p40
aS'Al Nile'
p41
aS'Gulim'
p42
aS'Rockwell Condensed'
p43
aS'Bangla Sangam MN'
p44
aS'Arial Rounded MT Bold'
p45
aS'Myanmar Sangam MN'
p46
aS'Yu Mincho Light'
p47
aS'Gill Sans MT'
p48
aS'Gurmukhi Sangam MN'
p49
aS'Ubuntu Medium'
p50
aS'Ubuntu Light'
p51
aS'Kalinga'
p52
aS'Simplified Arabic'
p53
aS'FangSong'
p54
aS'MingLiU'
p55
aS'Norasi'
p56
aS'Droid Sans Georgian'
p57
aS'Franklin Gothic Medium Cond'
p58
aS'DejaVu Sans Light'
p59
aS'Khmer OS'
p60
aS'Trattatello'
p61
aS'Playbill'
p62
aS'Sakkal Majalla'
p63
aS'Marlett'
p64
aS'Chalkboard SE'
p65
aS'Malgun Gothic Semilight'
p66
aS'Bitstream Charter'
p67
aS'DIN Condensed'
p68
aS'Mallige'
p69
aS'Calibri Light'
p70
aS'DejaVu Sans Condensed'
p71
aS'STKaiti'
p72
aS'Microsoft PhagsPa'
p73
aS'Bradley Hand ITC'
p74
aS'Palatino Linotype'
p75
aS'Microsoft YaHei Light'
p76
aS'GB18030 Bitmap'
p77
aS'Herculanum'
p78
aS'Apple Symbols'
p79
aS'Apple SD Gothic Neo'
p80
aS'Wawati TC'
p81
aS'Sukhumvit Set'
p82
aS'Engravers MT'
p83
aS'Farah'
p84
aS'Mistral'
p85
aS'Monotype Sorts'
p86
aS'Garamond'
p87
aS'Book Antiqua'
p88
aS'Droid Serif'
p89
aS'Avenir Next Condensed'
p90
aS'Lao MN'
p91
aS'URW Chancery L'
p92
aS'SignPainter'
p93
aS'ITF Devanagari Marathi'
p94
aS'OpenDyslexicAlta'
p95
aS'Edwardian Script ITC'
p96
aS'Britannic Bold'
p97
aS'American Typewriter'
p98
aS'Yuppy TC'
p99
aS'Tamil Sangam MN'
p100
aS'Tsukushi B Round Gothic'
p101
aS'MT Extra'
p102
aS'Baoli SC'
p103
aS'Avenir'
p104
aS'Gentium Book Basic'
p105
aS'Hiragino Kaku Gothic ProN'
p106
aS'PT Serif Caption'
p107
aS'Charter'
p108
aS'KacstPen'
p109
aS'Hiragino Maru Gothic ProN'
p110
aS'Niagara Engraved'
p111
aS'Tsukushi A Round Gothic'
p112
aS'French Script MT'
p113
aS'Tw Cen MT'
p114
aS'KacstDecorative'
p115
aS'MS PMincho'
p116
aS'Century Gothic'
p117
aS'KacstLetter'
p118
aS'Yu Mincho'
p119
aS'MingLiU_HKSCS-ExtB'
p120
aS'Sitka Banner'
p121
aS'Castellar'
p122
aS'MS Mincho'
p123
aS'Farisi'
p124
aS'Rachana'
p125
aS'BrowalliaUPC'
p126
aS'Chalkboard'
p127
aS'Silom'
p128
aS'Leelawadee'
p129
aS'Curlz MT'
p130
aS'Droid Sans Arabic'
p131
aS'DokChampa'
p132
aS'Padauk'
p133
aS'Monotype Corsiva'
p134
aS'Onyx'
p135
aS'Consolas'
p136
aS'Kedage'
p137
aS'Myanmar Text'
p138
aS'Leelawadee UI'
p139
aS'Shree Devanagari 714'
p140
aS'Kohinoor Bangla'
p141
aS'Seravek'
p142
aS'Levenim MT'
p143
aS'Angsana New'
p144
aS'Viner Hand ITC'
p145
aS'DotumChe'
p146
aS'LiSong Pro'
p147
aS'Roman'
p148
aS'Chiller'
p149
aS'Phetsarath OT'
p150
aS'Gabriola'
p151
aS'Sitka Subheading'
p152
aS'Linux Biolinum G'
p153
aS'FreesiaUPC'
p154
aS'DIN Alternate'
p155
aS'Savoye LET'
p156
aS'PMingLiU-ExtB'
p157
aS'Yu Mincho Demibold'
p158
aS'LKLUG'
p159
aS'Aharoni'
p160
aS'Arial'
p161
aS'Vijaya'
p162
aS'Matura MT Script Capitals'
p163
aS'gargi'
p164
aS'CordiaUPC'
p165
aS'Superclarendon'
p166
aS'Beirut'
p167
aS'Hoefler Text'
p168
aS'TakaoPGothic'
p169
aS'Optima'
p170
aS'DecoType Naskh'
p171
aS'Ayuthaya'
p172
aS'Klee'
p173
aS'Hiragino Mincho ProN'
p174
aS'Bangla MN'
p175
aS'Devanagari Sangam MN'
p176
aS'Modern No. 20'
p177
aS'Microsoft JhengHei Light'
p178
aS'STIXSizeOneSym'
p179
aS'Sylfaen'
p180
aS'Rockwell Extra Bold'
p181
aS'Loma'
p182
aS'Nimbus Mono L'
p183
aS'Tlwg Typo'
p184
aS'SimHei'
p185
aS'Yu Gothic UI Semibold'
p186
aS'Kaiti SC'
p187
aS'Mishafi Gold'
p188
aS'Bell MT'
p189
aS'Lucida Sans'
p190
aS'Harrington'
p191
aS'Purisa'
p192
aS'PingFang SC'
p193
aS'Gill Sans Ultra Bold'
p194
aS'Noteworthy'
p195
aS'Droid Sans Japanese'
p196
aS'Bookshelf Symbol 7'
p197
aS'Marker Felt'
p198
aS'Carlito'
p199
aS'Gungsuh'
p200
aS'Eras Bold ITC'
p201
aS'Thonburi'
p202
aS'Old English Text MT'
p203
aS'Kaiti TC'
p204
aS'Umpush'
p205
aS'STIXNonUnicode'
p206
aS'Segoe UI Black'
p207
aS'Narkisim'
p208
aS'JasmineUPC'
p209
aS'Damascus'
p210
aS'Arial Black'
p211
aS'Gigi'
p212
aS'Iskoola Pota'
p213
aS'Wingdings'
p214
aS'Didot'
p215
aS'NanumGothic'
p216
aS'Bauhaus 93'
p217
aS'KacstBook'
p218
aS'Yu Gothic Light'
p219
aS'URW Palladio L'
p220
aS'Webdings'
p221
aS'Lohit Punjabi'
p222
aS'Raanana'
p223
aS'Euphemia UCAS'
p224
aS'MS Reference Specialty'
p225
aS'Khmer UI'
p226
aS'Cochin'
p227
aS'Zapfino'
p228
aS'Big Caslon'
p229
aS'Laksaman'
p230
aS'Footlight MT Light'
p231
aS'KacstTitleL'
p232
aS'Nirmala UI Semilight'
p233
aS'Vrinda'
p234
aS'Linux Libertine G'
p235
aS'Source Sans Pro ExtraLight'
p236
aS'PT Sans'
p237
aS'Devanagari MT'
p238
aS'Parchment'
p239
aS'Rekha'
p240
aS'Lohit Devanagari'
p241
aS'Tamil MN'
p242
aS'Bodoni MT Black'
p243
aS'STFangsong'
p244
aS'Miriam'
p245
aS'ITF Devanagari'
p246
aS'Goudy Stout'
p247
aS'Saab'
p248
aS'FrankRuehl'
p249
aS'Hiragino Sans GB'
p250
aS'Lao UI'
p251
aS'Courier'
p252
aS'Brush Script MT'
p253
aS'Symbol'
p254
aS'High Tower Text'
p255
aS'Leelawadee UI Semilight'
p256
aS'STIXIntegralsSm'
p257
aS'Ravie'
p258
aS'Pothana2000'
p259
aS'Yu Gothic Medium'
p260
aS'EucrosiaUPC'
p261
aS'Tw Cen MT Condensed'
p262
aS'Oriya Sangam MN'
p263
aS'Yu Gothic UI'
p264
aS'KacstNaskh'
p265
aS'Kailasa'
p266
aS'Tempus Sans ITC'
p267
aS'GungsuhChe'
p268
aS'Skia'
p269
aS'David'
p270
aS'Latha'
p271
aS'STIXSizeTwoSym'
p272
aS'Berlin Sans FB Demi'
p273
aS'DilleniaUPC'
p274
aS'STIXSizeThreeSym'
p275
aS'Telugu MN'
p276
aS'Dingbats'
p277
aS'DejaVu Sans Mono'
p278
aS'Segoe UI Light'
p279
aS'Gloucester MT Extra Condensed'
p280
aS'Kinnari'
p281
aS'Baskerville Old Face'
p282
aS'Al Tarikh'
p283
aS'SimSun-ExtB'
p284
aS'Vladimir Script'
p285
aS'Rockwell'
p286
aS'Weibei TC'
p287
aS'Avenir Next'
p288
aS'Franklin Gothic Heavy'
p289
aS'Cooper Black'
p290
aS'Times New Roman'
p291
aS'Source Sans Pro Black'
p292
aS'Californian FB'
p293
aS'AngsanaUPC'
p294
aS'Algerian'
p295
aS'Tunga'
p296
aS'Copperplate Gothic Bold'
p297
aS'Arabic Typesetting'
p298
aS'Microsoft Tai Le'
p299
aS'Droid Sans Ethiopic'
p300
aS'Showcard Gothic'
p301
aS'DFKai-SB'
p302
aS'STIXIntegralsUp'
p303
aS'Copperplate'
p304
aS'KacstFarsi'
p305
aS'Berlin Sans FB'
p306
aS'Geeza Pro'
p307
aS'Yuanti TC'
p308
aS'Mongolian Baiti'
p309
aS'Nanum Brush Script'
p310
aS'Century Schoolbook'
p311
aS'Bodoni MT Condensed'
p312
aS'Tibetan Machine Uni'
p313
aS'Lantinghei TC'
p314
aS'Helvetica'
p315
aS'Arial Narrow'
p316
aS'GulimChe'
p317
aS'Kino MT'
p318
aS'Gill Sans MT Ext Condensed Bold'
p319
aS'Eurostile'
p320
aS'Raavi'
p321
aS'Hiragino Sans'
p322
aS'Shonar Bangla'
p323
aS'Droid Arabic Kufi'
p324
aS'Bodoni 72 Oldstyle'
p325
aS'Meiryo UI'
p326
aS'Gurmukhi MN'
p327
aS'Mukti Narrow'
p328
aS'Perpetua'
p329
aS'utkal'
p330
aS'Nanum Gothic'
p331
aS'Gurmukhi MT'
p332
aS'Telugu Sangam MN'
p333
aS'Batang'
p334
aS'Droid Sans Armenian'
p335
aS'Apple Braille'
p336
aS'Cambria Math'
p337
aS'Kokonor'
p338
aS'Candara'
p339
aS'Monaco'
p340
aS'NanumMyeongjo'
p341
aS'Kohinoor Devanagari'
p342
aS'STIXVariants'
p343
aS'Athelas'
p344
aS'Courier New'
p345
aS'Rage Italic'
p346
aS'Marion'
p347
aS'Broadway'
p348
aS'Imprint MT Shadow'
p349
aS'Fixedsys'
p350
aS'Source Sans Pro Semibold'
p351
aS'Vemana2000'
p352
aS'Snell Roundhand'
p353
aS'Copperplate Gothic Light'
p354
aS'Script'
p355
aS'PT Sans Narrow'
p356
aS'Franklin Gothic Demi'
p357
aS'Microsoft New Tai Lue'
p358
aS'Segoe UI Semilight'
p359
aS'Segoe UI'
p360
aS'Segoe Print'
p361
aS'Centaur'
p362
aS'FreeSans'
p363
aS'Cambria'
p364
aS'Gautami'
p365
aS'Tlwg Typist'
p366
aS'NanumBarunGothic'
p367
aS'Hiragino Mincho Pro'
p368
aS'Lucida Grande'
p369
aS'OpenDyslexic'
p370
aS'Microsoft Himalaya'
p371
aS'Wawati SC'
p372
aS'Harlow Solid Italic'
p373
aS'Sana'
p374
aS'Segoe UI Emoji'
p375
aS'Ubuntu Mono'
p376
aS'Symbola'
p377
aS'Yuppy SC'
p378
aS'Meiryo'
p379
aS'MS Sans Serif'
p380
aS'TlwgTypewriter'
p381
aS'DaunPenh'
p382
aS'Sitka Display'
p383
aS'DejaVu Serif'
p384
aS'Desdemona'
p385
aS'Source Sans Pro Light'
p386
aS'Lucida Sans Typewriter'
p387
aS'SimSun'
p388
aS'Mshtakan'
p389
aS'Hannotate SC'
p390
aS'STIXIntegralsUpD'
p391
aS'Shruti'
p392
aS'Nimbus Roman No9 L'
p393
aS'Mishafi'
p394
aS'Droid Arabic Naskh'
p395
aS'Pristina'
p396
aS'Corbel'
p397
aS'Constantia'
p398
aS'Sawasdee'
p399
aS'Gill Sans MT Condensed'
p400
aS'PingFang TC'
p401
aS'Meera'
p402
aS'Euphemia'
p403
aS'TeamViewer10'
p404
aS'Nimbus Sans L'
p405
aS'mry_KacstQurn'
p406
aS'Georgia'
p407
aS'Droid Sans Hebrew'
p408
aS'Droid Sans Mono'
p409
aS'Aparajita'
p410
aS'Abadi MT Condensed Light'
p411
aS'Khmer MN'
p412
aS'MS UI Gothic'
p413
aS'OCR A Extended'
p414
aS'Traditional Arabic'
p415
aS'Bodoni MT Poster Compressed'
p416
aS'Eras Demi ITC'
p417
aS'Magneto'
p418
aS'Apple Chancery'
p419
aS'Heiti SC'
p420
aS'KacstArt'
p421
aS'KacstTitle'
p422
aS'InaiMathi'
p423
aS'Myanmar MN'
p424
aS'Utsaah'
p425
aS'PT Serif'
p426
aS'Baskerville'
p427
aS'Lucida Console'
p428
aS'Felix Titling'
p429
aS'Waree'
p430
aS'KacstDigital'
p431
aS'Sinhala MN'
p432
aS'Andale Mono'
p433
aS'YuMincho +36p Kana'
p434
aS'Muna'
p435
aS'Bodoni MT'
p436
aS'Liberation Mono'
p437
aS'Bookman Old Style'
p438
aS'Gentium Basic'
p439
aS'Eras Medium ITC'
p440
aS'YuMincho'
p441
aS'Lucida Blackletter'
p442
aS'Bradley Hand'
p443
aS'AppleMyungjo'
p444
aS'Yu Gothic UI Light'
p445
aS'Gill Sans Ultra Bold Condensed'
p446
aS'KacstOffice'
p447
aS'Iowan Old Style'
p448
aS'Segoe Script'
p449
aS'Menlo'
p450
aS'Yuanti SC'
p451
aS'Courier 10 Pitch'
p452
aS'Diwan Thuluth'
p453
aS'PilGi'
p454
aS'Microsoft Sans Serif'
p455
aS'Yu Gothic'
p456
aS'Juice ITC'
p457
aS'STSong'
p458
aS'LilyUPC'
p459
aS'KufiStandardGK'
p460
aS'Microsoft YaHei'
p461
aS'Javanese Text'
p462
aS'Lucida Fax'
p463
aS'Microsoft JhengHei UI Light'
p464
aS'Malayalam Sangam MN'
p465
aS'PCMyungjo'
p466
aS'Oriya MN'
p467
aS'Arial Unicode MS'
p468
aS'Calibri'
p469
aS'Perpetua Titling MT'
p470
aS'Haettenschweiler'
p471
aS'Krungthep'
p472
aS'Al Bayan'
p473
aS'STIXSizeFiveSym'
p474
aS'Kefa'
p475
aS'Apple Color Emoji'
p476
aS'Franklin Gothic Demi Cond'
p477
aS'Palace Script MT'
p478
aS'MV Boli'
p479
aS'MS Gothic'
p480
aS'Baghdad'
p481
aS'IrisUPC'
p482
aS'Helvetica Neue'
p483
aS'Kartika'
p484
aS'Kunstler Script'
p485
aS'Libian SC'
p486
aS'Hiragino Kaku Gothic Pro'
p487
aS'Sitka Small'
p488
aS'Source Sans Pro'
p489
aS'Nanum Pen Script'
p490
aS'Estrangelo Edessa'
p491
aS'Segoe UI Historic'
p492
aS'DejaVu Sans'
p493
aS'Gujarati Sangam MN'
p494
aS'Gill Sans'
p495
aS'Malayalam MN'
p496
aS'KaiTi'
p497
aS'MS Reference Sans Serif'
p498
aS'PingFang HK'
p499
aS'Kohinoor Telugu'
p500
aS'Bodoni 72 Smallcaps'
p501
aS'Agency FB'
p502
aS'Small Fonts'
p503
aS'Miriam Fixed'
p504
aS'Goudy Old Style'
p505
aS'Wingdings 3'
p506
aS'Wingdings 2'
p507
aS'Zapf Dingbats'
p508
aS'System'
p509
aS'Microsoft YaHei UI Light'
p510
aS'Forte'
p511
aS'Sinhala Sangam MN'
p512
aS'Lohit Bengali'
p513
aS'Lucida Calligraphy'
p514
aS'Palatino'
p515
aS'AppleGothic'
p516
aS'URW Bookman L'
p517
aS'Colonna MT'
p518
aS'Lucida Sans Unicode'
p519
aS'Diwan Kufi'
p520
aS'Xingkai SC'
p521
aS'Open Sans'
p522
aS'Ubuntu Condensed'
p523
aS'Malgun Gothic'
p524
aS'Khmer OS System'
p525
aS'KodchiangUPC'
p526
aS'Source Code Pro'
p527
aS'Bodoni 72'
p528
aS'Simplified Arabic Fixed'
p529
aS'Papyrus'
p530
aS'FreeSerif'
p531
aS'Lohit Tamil'
p532
aS'URW Gothic L'
p533
aS'Bodoni Ornaments'
p534
aS'Sathu'
p535
aS'Padauk Book'
p536
aS'PT Mono'
p537
aS'Browallia New'
p538
aS'Liberation Sans Narrow'
p539
aS'Rod'
p540
aS'Calisto MT'
p541
aS'Eras Light ITC'
p542
aS'Segoe UI Symbol'
p543
aS'New Peninim MT'
p544
aS'Franklin Gothic Book'
p545
aS'Trebuchet MS'
p546
aS'Kannada MN'
p547
aS'Waseem'
p548
aS'Hiragino Kaku Gothic Std'
p549
aS'Lucida Handwriting'
p550
aS'Microsoft JhengHei'
p551
aS'BatangChe'
p552
aS'Liberation Sans'
p553
aS'DejaVu Serif Condensed'
p554
aS'MingLiU_HKSCS'
p555
aS'Niagara Solid'
p556
aS'Hiragino Kaku Gothic StdN'
p557
aS'Nyala'
p558
aS'MS PGothic'
p559
aS'Droid Sans'
p560
aS'Ubuntu'
p561
aS'Maiandra GD'
p562
aS'PMingLiU'
p563
aS'KacstOne'
p564
aS'Mangal'
p565
aS'Phosphate'
p566
aS'MoolBoran'
p567
aS'Informal Roman'
p568
aS'STIXGeneral'
p569
aS'STHeiti'
p570
aS'Abyssinica SIL'
p571
aS'Jokerman'
p572
aS'Century'
p573
aS'Standard Symbols L'
p574
aS'Plantagenet Cherokee'
p575
aS'Franklin Gothic Medium'
p576
aS'Poor Richard'
p577
aS'STIXIntegralsD'
p578
aS'Lucida Bright'
p579
aS'Tahoma'
p580
aS'Microsoft Yi Baiti'
p581
aS'Sitka Text'
p582
aS'Tw Cen MT Condensed Extra Bold'
p583
aS'Gadugi'
p584
aS'Microsoft Uighur'
p585
aS'Linux Libertine Display G'
p586
aS'Script MT Bold'
p587
aS'STIXSizeFourSym'
p588
aS'Ebrima'
p589
aS'Microsoft YaHei UI'
p590
aS'Terminal'
p591
aS'Freestyle Script'
p592
aS'Blackadder ITC'
p593
aS'Droid Sans Fallback'
p594
aS'HanziPen TC'
p595
aS'Luminari'
p596
aS'YuGothic'
p597
aS'Kristen ITC'
p598
aS'Geneva'
p599
aS'Lantinghei SC'
p600
aS'Songti SC'
p601
aS'Sitka Heading'
p602
aS'Arial Hebrew'
p603
aS'Bernard MT Condensed'
p604
aS'Nanum Myeongjo'
p605
aS'Vani'
p606
aS'LiHei Pro'
p607
aS'NSimSun'
p608
aS'Hannotate TC'
p609
aS'MingLiU-ExtB'
p610
aS'Braggadocio'
p611
aS'Futura'
p612
aS'Arial Hebrew Scholar'
p613
aS'Lohit Gujarati'
p614
aS'Cordia New'
p615
aS'MS Serif'
p616
aS'Nirmala UI'
p617
aS'Heiti TC'
p618
aS'Kokila'
p619
aS'Modern'
p620
aS'OpenDyslexicMono'
p621
aS'Microsoft JhengHei UI'
p622
aS'Comic Sans MS'
p623
aS'Gujarati MT'
p624
aS'KacstScreen'
p625
aS'Times'
p626
a.