(lp0
S'Agency FB'
p1
aS'Algerian'
p2
aS'Arial'
p3
aS'Arial Black'
p4
aS'Arial Narrow'
p5
aS'Arial Rounded MT Bold'
p6
aS'Arial Unicode MS'
p7
aS'Baskerville Old Face'
p8
aS'Bauhaus 93'
p9
aS'Bell MT'
p10
aS'Berlin Sans FB'
p11
aS'Berlin Sans FB Demi'
p12
aS'Bernard MT Condensed'
p13
aS'Blackadder ITC'
p14
aS'Bodoni MT'
p15
aS'Bodoni MT Black'
p16
aS'Bodoni MT Condensed'
p17
aS'Bodoni MT Poster Compressed'
p18
aS'Book Antiqua'
p19
aS'Bookman Old Style'
p20
aS'Bookshelf Symbol 7'
p21
aS'Bradley Hand ITC'
p22
aS'Britannic Bold'
p23
aS'Broadway'
p24
aS'Brush Script MT'
p25
aS'Caladea'
p26
aS'Calibri'
p27
aS'Calibri Light'
p28
aS'Californian FB'
p29
aS'Calisto MT'
p30
aS'Cambria'
p31
aS'Cambria Math'
p32
aS'Candara'
p33
aS'Carlito'
p34
aS'Castellar'
p35
aS'Centaur'
p36
aS'Century'
p37
aS'Century Gothic'
p38
aS'Century Schoolbook'
p39
aS'Chiller'
p40
aS'Colonna MT'
p41
aS'Comic Sans MS'
p42
aS'Consolas'
p43
aS'Constantia'
p44
aS'Cooper Black'
p45
aS'Copperplate Gothic Bold'
p46
aS'Copperplate Gothic Light'
p47
aS'Corbel'
p48
aS'Courier'
p49
aS'Courier New'
p50
aS'Curlz MT'
p51
aS'DejaVu Sans'
p52
aS'DejaVu Sans Condensed'
p53
aS'DejaVu Sans Light'
p54
aS'DejaVu Sans Mono'
p55
aS'DejaVu Serif'
p56
aS'DejaVu Serif Condensed'
p57
aS'Ebrima'
p58
aS'Edwardian Script ITC'
p59
aS'Elephant'
p60
aS'Engravers MT'
p61
aS'Eras Bold ITC'
p62
aS'Eras Demi ITC'
p63
aS'Eras Light ITC'
p64
aS'Eras Medium ITC'
p65
aS'Felix Titling'
p66
aS'Fixedsys'
p67
aS'Footlight MT Light'
p68
aS'Forte'
p69
aS'Franklin Gothic Book'
p70
aS'Franklin Gothic Demi'
p71
aS'Franklin Gothic Demi Cond'
p72
aS'Franklin Gothic Heavy'
p73
aS'Franklin Gothic Medium'
p74
aS'Franklin Gothic Medium Cond'
p75
aS'Freestyle Script'
p76
aS'French Script MT'
p77
aS'Gabriola'
p78
aS'Gadugi'
p79
aS'Garamond'
p80
aS'Gentium Basic'
p81
aS'Gentium Book Basic'
p82
aS'Georgia'
p83
aS'Gigi'
p84
aS'Gill Sans MT'
p85
aS'Gill Sans MT Condensed'
p86
aS'Gill Sans MT Ext Condensed Bold'
p87
aS'Gill Sans Ultra Bold'
p88
aS'Gill Sans Ultra Bold Condensed'
p89
aS'Gloucester MT Extra Condensed'
p90
aS'Goudy Old Style'
p91
aS'Goudy Stout'
p92
aS'Haettenschweiler'
p93
aS'Harlow Solid Italic'
p94
aS'Harrington'
p95
aS'High Tower Text'
p96
aS'Impact'
p97
aS'Imprint MT Shadow'
p98
aS'Informal Roman'
p99
aS'Javanese Text'
p100
aS'Jokerman'
p101
aS'Juice ITC'
p102
aS'Kristen ITC'
p103
aS'Kunstler Script'
p104
aS'Leelawadee UI'
p105
aS'Leelawadee UI Semilight'
p106
aS'Liberation Mono'
p107
aS'Liberation Sans'
p108
aS'Liberation Sans Narrow'
p109
aS'Liberation Serif'
p110
aS'Linux Biolinum G'
p111
aS'Linux Libertine Display G'
p112
aS'Linux Libertine G'
p113
aS'Lucida Bright'
p114
aS'Lucida Calligraphy'
p115
aS'Lucida Console'
p116
aS'Lucida Fax'
p117
aS'Lucida Handwriting'
p118
aS'Lucida Sans'
p119
aS'Lucida Sans Typewriter'
p120
aS'Lucida Sans Unicode'
p121
aS'Magneto'
p122
aS'Maiandra GD'
p123
aS'Malgun Gothic'
p124
aS'Malgun Gothic Semilight'
p125
aS'Marlett'
p126
aS'Matura MT Script Capitals'
p127
aS'Microsoft Himalaya'
p128
aS'Microsoft JhengHei'
p129
aS'Microsoft JhengHei Light'
p130
aS'Microsoft JhengHei UI'
p131
aS'Microsoft JhengHei UI Light'
p132
aS'Microsoft New Tai Lue'
p133
aS'Microsoft PhagsPa'
p134
aS'Microsoft Sans Serif'
p135
aS'Microsoft Tai Le'
p136
aS'Microsoft YaHei'
p137
aS'Microsoft YaHei Light'
p138
aS'Microsoft YaHei UI'
p139
aS'Microsoft YaHei UI Light'
p140
aS'Microsoft Yi Baiti'
p141
aS'MingLiU-ExtB'
p142
aS'MingLiU_HKSCS-ExtB'
p143
aS'Mistral'
p144
aS'Modern'
p145
aS'Modern No. 20'
p146
aS'Mongolian Baiti'
p147
aS'Monotype Corsiva'
p148
aS'MS Reference Sans Serif'
p149
aS'MS Reference Specialty'
p150
aS'MS Sans Serif'
p151
aS'MS Serif'
p152
aS'MT Extra'
p153
aS'MV Boli'
p154
aS'Myanmar Text'
p155
aS'Niagara Engraved'
p156
aS'Niagara Solid'
p157
aS'Nirmala UI'
p158
aS'Nirmala UI Semilight'
p159
aS'NSimSun'
p160
aS'OCR A Extended'
p161
aS'Old English Text MT'
p162
aS'Onyx'
p163
aS'Open Sans'
p164
aS'OpenSymbol'
p165
aS'Palace Script MT'
p166
aS'Palatino Linotype'
p167
aS'Papyrus'
p168
aS'Parchment'
p169
aS'Perpetua'
p170
aS'Perpetua Titling MT'
p171
aS'Playbill'
p172
aS'PMingLiU-ExtB'
p173
aS'Poor Richard'
p174
aS'Pristina'
p175
aS'PT Serif'
p176
aS'Rage Italic'
p177
aS'Ravie'
p178
aS'Rockwell'
p179
aS'Rockwell Condensed'
p180
aS'Rockwell Extra Bold'
p181
aS'Roman'
p182
aS'Script'
p183
aS'Script MT Bold'
p184
aS'Segoe MDL2 Assets'
p185
aS'Segoe Print'
p186
aS'Segoe Script'
p187
aS'Segoe UI'
p188
aS'Segoe UI Black'
p189
aS'Segoe UI Emoji'
p190
aS'Segoe UI Historic'
p191
aS'Segoe UI Light'
p192
aS'Segoe UI Semibold'
p193
aS'Segoe UI Semilight'
p194
aS'Segoe UI Symbol'
p195
aS'Showcard Gothic'
p196
aS'SimSun'
p197
aS'SimSun-ExtB'
p198
aS'Sitka Banner'
p199
aS'Sitka Display'
p200
aS'Sitka Heading'
p201
aS'Sitka Small'
p202
aS'Sitka Subheading'
p203
aS'Sitka Text'
p204
aS'Small Fonts'
p205
aS'Snap ITC'
p206
aS'Source Code Pro'
p207
aS'Source Sans Pro'
p208
aS'Source Sans Pro Black'
p209
aS'Source Sans Pro ExtraLight'
p210
aS'Source Sans Pro Light'
p211
aS'Source Sans Pro Semibold'
p212
aS'Stencil'
p213
aS'Sylfaen'
p214
aS'Symbol'
p215
aS'System'
p216
aS'Tahoma'
p217
aS'TeamViewer10'
p218
aS'Tempus Sans ITC'
p219
aS'Terminal'
p220
aS'Times New Roman'
p221
aS'Trebuchet MS'
p222
aS'Tw Cen MT'
p223
aS'Tw Cen MT Condensed'
p224
aS'Tw Cen MT Condensed Extra Bold'
p225
aS'Verdana'
p226
aS'Viner Hand ITC'
p227
aS'Vivaldi'
p228
aS'Vladimir Script'
p229
aS'Webdings'
p230
aS'Wide Latin'
p231
aS'Wingdings'
p232
aS'Wingdings 2'
p233
aS'Wingdings 3'
p234
aS'Yu Gothic'
p235
aS'Yu Gothic Light'
p236
aS'Yu Gothic Medium'
p237
aS'Yu Gothic UI'
p238
aS'Yu Gothic UI Light'
p239
aS'Yu Gothic UI Semibold'
p240
aS'Yu Gothic UI Semilight'
p241
aS'Yu Mincho'
p242
aS'Yu Mincho Demibold'
p243
aS'Yu Mincho Light'
p244
aS'KacstFarsi'
p245
aS'Droid Sans Armenian'
p246
aS'Meera'
p247
aS'FreeMono'
p248
aS'Padauk Book'
p249
aS'Loma'
p250
aS'Droid Sans'
p251
aS'Century Schoolbook L'
p252
aS'KacstTitleL'
p253
aS'Ubuntu Medium'
p254
aS'Droid Arabic Naskh'
p255
aS'OpenDyslexic'
p256
aS'Garuda'
p257
aS'Rekha'
p258
aS'Purisa'
p259
aS'Droid Sans Mono'
p260
aS'Vemana2000'
p261
aS'KacstOffice'
p262
aS'Umpush'
p263
aS'Sawasdee'
p264
aS'Droid Sans Ethiopic'
p265
aS'Tibetan Machine Uni'
p266
aS'URW Palladio L'
p267
aS'FreeSerif'
p268
aS'KacstDigital'
p269
aS'Ubuntu Condensed'
p270
aS'Droid Arabic Kufi'
p271
aS'mry_KacstQurn'
p272
aS'Padauk'
p273
aS'URW Gothic L'
p274
aS'Droid Sans Georgian'
p275
aS'Dingbats'
p276
aS'URW Chancery L'
p277
aS'Phetsarath OT'
p278
aS'Droid Sans Japanese'
p279
aS'Tlwg Typist'
p280
aS'KacstLetter'
p281
aS'utkal'
p282
aS'Norasi'
p283
aS'Droid Sans Fallback'
p284
aS'OpenDyslexicMono'
p285
aS'KacstOne'
p286
aS'NanumMyeongjo'
p287
aS'Lohit Gujarati'
p288
aS'KacstArt'
p289
aS'Mallige'
p290
aS'Bitstream Charter'
p291
aS'NanumGothic'
p292
aS'Ubuntu'
p293
aS'Courier 10 Pitch'
p294
aS'Nimbus Sans L'
p295
aS'Droid Sans Hebrew'
p296
aS'TakaoPGothic'
p297
aS'Kedage'
p298
aS'NanumBarunGothic'
p299
aS'Kinnari'
p300
aS'TlwgMono'
p301
aS'Standard Symbols L'
p302
aS'Lohit Punjabi'
p303
aS'Nimbus Mono L'
p304
aS'Rachana'
p305
aS'Waree'
p306
aS'KacstPoster'
p307
aS'Khmer OS'
p308
aS'FreeSans'
p309
aS'gargi'
p310
aS'Droid Sans Arabic'
p311
aS'Nimbus Roman No9 L'
p312
aS'Ubuntu Light'
p313
aS'TlwgTypewriter'
p314
aS'KacstPen'
p315
aS'Laksaman'
p316
aS'Lohit Devanagari'
p317
aS'Tlwg Typo'
p318
aS'Droid Serif'
p319
aS'Mukti Narrow'
p320
aS'Droid Naskh Shift Alt'
p321
aS'Ubuntu Mono'
p322
aS'Lohit Bengali'
p323
aS'KacstDecorative'
p324
aS'Khmer OS System'
p325
aS'Saab'
p326
aS'Symbola'
p327
aS'KacstTitle'
p328
aS'LKLUG'
p329
aS'Abyssinica SIL'
p330
aS'OpenDyslexicAlta'
p331
aS'KacstQurn'
p332
aS'URW Bookman L'
p333
aS'KacstNaskh'
p334
aS'KacstScreen'
p335
aS'Pothana2000'
p336
aS'Lohit Tamil'
p337
aS'KacstBook'
p338
aS'Abadi MT Condensed Light'
p339
aS'Al Bayan'
p340
aS'Al Nile'
p341
aS'Al Tarikh'
p342
aS'American Typewriter'
p343
aS'Andale Mono'
p344
aS'Apple Braille'
p345
aS'Apple Chancery'
p346
aS'Apple Color Emoji'
p347
aS'Apple SD Gothic Neo'
p348
aS'Apple Symbols'
p349
aS'AppleGothic'
p350
aS'AppleMyungjo'
p351
aS'Arial Hebrew'
p352
aS'Arial Hebrew Scholar'
p353
aS'Athelas'
p354
aS'Avenir'
p355
aS'Avenir Next'
p356
aS'Avenir Next Condensed'
p357
aS'Ayuthaya'
p358
aS'Baghdad'
p359
aS'Bangla MN'
p360
aS'Bangla Sangam MN'
p361
aS'Baoli SC'
p362
aS'Baskerville'
p363
aS'Batang'
p364
aS'Beirut'
p365
aS'Big Caslon'
p366
aS'Bodoni 72'
p367
aS'Bodoni 72 Oldstyle'
p368
aS'Bodoni 72 Smallcaps'
p369
aS'Bodoni Ornaments'
p370
aS'Bradley Hand'
p371
aS'Braggadocio'
p372
aS'Chalkboard'
p373
aS'Chalkboard SE'
p374
aS'Chalkduster'
p375
aS'Charter'
p376
aS'Cochin'
p377
aS'Copperplate'
p378
aS'Corsiva Hebrew'
p379
aS'Damascus'
p380
aS'DecoType Naskh'
p381
aS'Desdemona'
p382
aS'Devanagari MT'
p383
aS'Devanagari Sangam MN'
p384
aS'Didot'
p385
aS'DIN Alternate'
p386
aS'DIN Condensed'
p387
aS'Diwan Kufi'
p388
aS'Diwan Thuluth'
p389
aS'Euphemia UCAS'
p390
aS'Eurostile'
p391
aS'Farah'
p392
aS'Farisi'
p393
aS'Futura'
p394
aS'GB18030 Bitmap'
p395
aS'Geeza Pro'
p396
aS'Geneva'
p397
aS'Gill Sans'
p398
aS'Gujarati MT'
p399
aS'Gujarati Sangam MN'
p400
aS'Gulim'
p401
aS'GungSeo'
p402
aS'Gurmukhi MN'
p403
aS'Gurmukhi MT'
p404
aS'Gurmukhi Sangam MN'
p405
aS'Hannotate SC'
p406
aS'Hannotate TC'
p407
aS'HanziPen SC'
p408
aS'HanziPen TC'
p409
aS'HeadLineA'
p410
aS'Heiti SC'
p411
aS'Heiti TC'
p412
aS'Helvetica'
p413
aS'Helvetica Neue'
p414
aS'Herculanum'
p415
aS'Hiragino Kaku Gothic Pro'
p416
aS'Hiragino Kaku Gothic ProN'
p417
aS'Hiragino Kaku Gothic Std'
p418
aS'Hiragino Kaku Gothic StdN'
p419
aS'Hiragino Maru Gothic Pro'
p420
aS'Hiragino Maru Gothic ProN'
p421
aS'Hiragino Mincho Pro'
p422
aS'Hiragino Mincho ProN'
p423
aS'Hiragino Sans'
p424
aS'Hiragino Sans GB'
p425
aS'Hoefler Text'
p426
aS'InaiMathi'
p427
aS'Iowan Old Style'
p428
aS'ITF Devanagari'
p429
aS'ITF Devanagari Marathi'
p430
aS'Kailasa'
p431
aS'Kaiti SC'
p432
aS'Kaiti TC'
p433
aS'Kannada MN'
p434
aS'Kannada Sangam MN'
p435
aS'Kefa'
p436
aS'Khmer MN'
p437
aS'Khmer Sangam MN'
p438
aS'Kino MT'
p439
aS'Klee'
p440
aS'Kohinoor Bangla'
p441
aS'Kohinoor Devanagari'
p442
aS'Kohinoor Telugu'
p443
aS'Kokonor'
p444
aS'Krungthep'
p445
aS'KufiStandardGK'
p446
aS'Lantinghei SC'
p447
aS'Lantinghei TC'
p448
aS'Lao MN'
p449
aS'Lao Sangam MN'
p450
aS'Libian SC'
p451
aS'LiHei Pro'
p452
aS'LiSong Pro'
p453
aS'Lucida Blackletter'
p454
aS'Lucida Grande'
p455
aS'Luminari'
p456
aS'Malayalam MN'
p457
aS'Malayalam Sangam MN'
p458
aS'Marion'
p459
aS'Marker Felt'
p460
aS'Meiryo'
p461
aS'Menlo'
p462
aS'MingLiU'
p463
aS'MingLiU_HKSCS'
p464
aS'Mishafi'
p465
aS'Mishafi Gold'
p466
aS'Monaco'
p467
aS'Monotype Sorts'
p468
aS'MS Gothic'
p469
aS'MS Mincho'
p470
aS'MS PGothic'
p471
aS'MS PMincho'
p472
aS'Mshtakan'
p473
aS'Muna'
p474
aS'Myanmar MN'
p475
aS'Myanmar Sangam MN'
p476
aS'Nadeem'
p477
aS'Nanum Brush Script'
p478
aS'Nanum Gothic'
p479
aS'Nanum Myeongjo'
p480
aS'Nanum Pen Script'
p481
aS'New Peninim MT'
p482
aS'News Gothic MT'
p483
aS'Noteworthy'
p484
aS'Optima'
p485
aS'Oriya MN'
p486
aS'Oriya Sangam MN'
p487
aS'Osaka'
p488
aS'Palatino'
p489
aS'PCMyungjo'
p490
aS'Phosphate'
p491
aS'PilGi'
p492
aS'PingFang HK'
p493
aS'PingFang SC'
p494
aS'PingFang TC'
p495
aS'Plantagenet Cherokee'
p496
aS'PMingLiU'
p497
aS'PT Mono'
p498
aS'PT Sans'
p499
aS'PT Sans Caption'
p500
aS'PT Sans Narrow'
p501
aS'PT Serif Caption'
p502
aS'Raanana'
p503
aS'Sana'
p504
aS'Sathu'
p505
aS'Savoye LET'
p506
aS'Seravek'
p507
aS'Shree Devanagari 714'
p508
aS'SignPainter'
p509
aS'Silom'
p510
aS'SimHei'
p511
aS'Sinhala MN'
p512
aS'Sinhala Sangam MN'
p513
aS'Skia'
p514
aS'Snell Roundhand'
p515
aS'Songti SC'
p516
aS'Songti TC'
p517
aS'STFangsong'
p518
aS'STHeiti'
p519
aS'STIXGeneral'
p520
aS'STIXIntegralsD'
p521
aS'STIXIntegralsSm'
p522
aS'STIXIntegralsUp'
p523
aS'STIXIntegralsUpD'
p524
aS'STIXIntegralsUpSm'
p525
aS'STIXNonUnicode'
p526
aS'STIXSizeFiveSym'
p527
aS'STIXSizeFourSym'
p528
aS'STIXSizeOneSym'
p529
aS'STIXSizeThreeSym'
p530
aS'STIXSizeTwoSym'
p531
aS'STIXVariants'
p532
aS'STKaiti'
p533
aS'STSong'
p534
aS'Sukhumvit Set'
p535
aS'Superclarendon'
p536
aS'Tamil MN'
p537
aS'Tamil Sangam MN'
p538
aS'Telugu MN'
p539
aS'Telugu Sangam MN'
p540
aS'Thonburi'
p541
aS'Times'
p542
aS'Trattatello'
p543
aS'Tsukushi A Round Gothic'
p544
aS'Tsukushi B Round Gothic'
p545
aS'Waseem'
p546
aS'Wawati SC'
p547
aS'Wawati TC'
p548
aS'Weibei SC'
p549
aS'Weibei TC'
p550
aS'Xingkai SC'
p551
aS'Yuanti SC'
p552
aS'Yuanti TC'
p553
aS'YuGothic'
p554
aS'YuMincho'
p555
aS'YuMincho +36p Kana'
p556
aS'Yuppy SC'
p557
aS'Yuppy TC'
p558
aS'Zapf Dingbats'
p559
aS'Zapfino'
p560
aS'Abadi MT Condensed Extra Bold'
p561
a.